target datalayout = "e-m:e-p270:32:32-p271:32:32-p272:64:64-i64:64-i128:128-f80:128-n8:16:32:64-S128"
target triple = "x86_64-pc-linux-gnu"

%struct.H5LD_memb_t = type { i64, i64, i64, ptr }

; Function Attrs: nounwind uwtable
define void @H5LD_clean_vector(ptr noundef %0) #0 {
  %2 = alloca ptr, align 8
  %3 = alloca i32, align 4
  store ptr %0, ptr %2, align 8, !tbaa !3
  call void @llvm.lifetime.start.p0(i64 4, ptr %3) #8
  store i32 0, ptr %3, align 4, !tbaa !8
  br label %4

4:                                                ; preds = %68, %1
  %5 = load ptr, ptr %2, align 8, !tbaa !3
  %6 = load i32, ptr %3, align 4, !tbaa !8
  %7 = zext i32 %6 to i64
  %8 = getelementptr inbounds nuw ptr, ptr %5, i64 %7
  %9 = load ptr, ptr %8, align 8, !tbaa !10
  %10 = icmp ne ptr %9, null
  br i1 %10, label %11, label %71

11:                                               ; preds = %4
  %12 = load ptr, ptr %2, align 8, !tbaa !3
  %13 = load i32, ptr %3, align 4, !tbaa !8
  %14 = zext i32 %13 to i64
  %15 = getelementptr inbounds nuw ptr, ptr %12, i64 %14
  %16 = load ptr, ptr %15, align 8, !tbaa !10
  %17 = getelementptr inbounds nuw %struct.H5LD_memb_t, ptr %16, i32 0, i32 3
  %18 = load ptr, ptr %17, align 8, !tbaa !12
  %19 = icmp ne ptr %18, null
  br i1 %19, label %20, label %34

20:                                               ; preds = %11
  %21 = load ptr, ptr %2, align 8, !tbaa !3
  %22 = load i32, ptr %3, align 4, !tbaa !8
  %23 = zext i32 %22 to i64
  %24 = getelementptr inbounds nuw ptr, ptr %21, i64 %23
  %25 = load ptr, ptr %24, align 8, !tbaa !10
  %26 = getelementptr inbounds nuw %struct.H5LD_memb_t, ptr %25, i32 0, i32 3
  %27 = load ptr, ptr %26, align 8, !tbaa !12
  call void @free(ptr noundef %27) #8
  %28 = load ptr, ptr %2, align 8, !tbaa !3
  %29 = load i32, ptr %3, align 4, !tbaa !8
  %30 = zext i32 %29 to i64
  %31 = getelementptr inbounds nuw ptr, ptr %28, i64 %30
  %32 = load ptr, ptr %31, align 8, !tbaa !10
  %33 = getelementptr inbounds nuw %struct.H5LD_memb_t, ptr %32, i32 0, i32 3
  store ptr null, ptr %33, align 8, !tbaa !12
  br label %34

34:                                               ; preds = %20, %11
  %35 = load ptr, ptr %2, align 8, !tbaa !3
  %36 = load i32, ptr %3, align 4, !tbaa !8
  %37 = zext i32 %36 to i64
  %38 = getelementptr inbounds nuw ptr, ptr %35, i64 %37
  %39 = load ptr, ptr %38, align 8, !tbaa !10
  %40 = getelementptr inbounds nuw %struct.H5LD_memb_t, ptr %39, i32 0, i32 2
  %41 = load i64, ptr %40, align 8, !tbaa !16
  %42 = icmp slt i64 %41, 0
  br i1 %42, label %58, label %43

43:                                               ; preds = %34
  %44 = load ptr, ptr %2, align 8, !tbaa !3
  %45 = load i32, ptr %3, align 4, !tbaa !8
  %46 = zext i32 %45 to i64
  %47 = getelementptr inbounds nuw ptr, ptr %44, i64 %46
  %48 = load ptr, ptr %47, align 8, !tbaa !10
  %49 = getelementptr inbounds nuw %struct.H5LD_memb_t, ptr %48, i32 0, i32 2
  %50 = load i64, ptr %49, align 8, !tbaa !16
  %51 = call i32 @H5Tclose(i64 noundef %50)
  %52 = load ptr, ptr %2, align 8, !tbaa !3
  %53 = load i32, ptr %3, align 4, !tbaa !8
  %54 = zext i32 %53 to i64
  %55 = getelementptr inbounds nuw ptr, ptr %52, i64 %54
  %56 = load ptr, ptr %55, align 8, !tbaa !10
  %57 = getelementptr inbounds nuw %struct.H5LD_memb_t, ptr %56, i32 0, i32 2
  store i64 -1, ptr %57, align 8, !tbaa !16
  br label %58

58:                                               ; preds = %43, %34
  %59 = load ptr, ptr %2, align 8, !tbaa !3
  %60 = load i32, ptr %3, align 4, !tbaa !8
  %61 = zext i32 %60 to i64
  %62 = getelementptr inbounds nuw ptr, ptr %59, i64 %61
  %63 = load ptr, ptr %62, align 8, !tbaa !10
  call void @free(ptr noundef %63) #8
  %64 = load ptr, ptr %2, align 8, !tbaa !3
  %65 = load i32, ptr %3, align 4, !tbaa !8
  %66 = zext i32 %65 to i64
  %67 = getelementptr inbounds nuw ptr, ptr %64, i64 %66
  store ptr null, ptr %67, align 8, !tbaa !10
  br label %68

68:                                               ; preds = %58
  %69 = load i32, ptr %3, align 4, !tbaa !8
  %70 = add i32 %69, 1
  store i32 %70, ptr %3, align 4, !tbaa !8
  br label %4, !llvm.loop !17

71:                                               ; preds = %4
  call void @llvm.lifetime.end.p0(i64 4, ptr %3) #8
  ret void
}