; Function Attrs: nounwind uwtable
define void @H5LD_clean_vector(ptr noundef captures(none) %0) local_unnamed_addr #0 {
  %2 = load ptr, ptr %0, align 8, !tbaa !3
  %.not22 = icmp eq ptr %2, null
  br i1 %.not22, label %._crit_edge, label %.lr.ph

.lr.ph:                                           ; preds = %1, %19
  %3 = phi ptr [ %24, %19 ], [ %2, %1 ]
  %4 = phi ptr [ %23, %19 ], [ %0, %1 ]
  %.023 = phi i32 [ %21, %19 ], [ 0, %1 ]
  %5 = getelementptr inbounds nuw i8, ptr %3, i64 24
  %6 = load ptr, ptr %5, align 8, !tbaa !8
  %.not21 = icmp eq ptr %6, null
  br i1 %.not21, label %10, label %7

7:                                                ; preds = %.lr.ph
  tail call void @free(ptr noundef nonnull %6) #9
  %8 = load ptr, ptr %4, align 8, !tbaa !3
  %9 = getelementptr inbounds nuw i8, ptr %8, i64 24
  store ptr null, ptr %9, align 8, !tbaa !8
  br label %10

10:                                               ; preds = %7, %.lr.ph
  %11 = phi ptr [ %8, %7 ], [ %3, %.lr.ph ]
  %12 = getelementptr inbounds nuw i8, ptr %11, i64 16
  %13 = load i64, ptr %12, align 8, !tbaa !12
  %14 = icmp slt i64 %13, 0
  br i1 %14, label %19, label %15

15:                                               ; preds = %10
  %16 = tail call i32 @H5Tclose(i64 noundef %13) #9
  %17 = load ptr, ptr %4, align 8, !tbaa !3
  %18 = getelementptr inbounds nuw i8, ptr %17, i64 16
  store i64 -1, ptr %18, align 8, !tbaa !12
  br label %19

19:                                               ; preds = %15, %10
  %20 = phi ptr [ %17, %15 ], [ %11, %10 ]
  tail call void @free(ptr noundef nonnull %20) #9
  store ptr null, ptr %4, align 8, !tbaa !3
  %21 = add i32 %.023, 1
  %22 = zext i32 %21 to i64
  %23 = getelementptr inbounds nuw ptr, ptr %0, i64 %22
  %24 = load ptr, ptr %23, align 8, !tbaa !3
  %.not = icmp eq ptr %24, null
  br i1 %.not, label %._crit_edge, label %.lr.ph, !llvm.loop !13

._crit_edge:                                      ; preds = %19, %1
  ret void
}